target datalayout = "e-m:e-p270:32:32-p271:32:32-p272:64:64-i64:64-i128:128-f80:128-n8:16:32:64-S128"
target triple = "x86_64-unknown-linux-gnu"

%"struct.OpenImageIO_v2_6_0::ROI" = type { i32, i32, i32, i32, i32, i32, i32, i32 }
%"struct.OpenImageIO_v2_6_0::ImageBufAlgo::CompareResults" = type { double, double, double, double, i32, i32, i32, i32, i64, i64, i8 }

; Function Attrs: mustprogress uwtable
define void @_ZN18OpenImageIO_v2_6_012ImageBufAlgo7compareERKNS_8ImageBufES3_ffNS_3ROIEi(ptr noalias sret(%"struct.OpenImageIO_v2_6_0::ImageBufAlgo::CompareResults") align 8 %agg.result, ptr noundef nonnull align 8 dereferenceable(16) %A, ptr noundef nonnull align 8 dereferenceable(16) %B, float noundef %failthresh, float noundef %warnthresh, ptr noundef byval(%"struct.OpenImageIO_v2_6_0::ROI") align 8 %roi, i32 noundef %nthreads) #6 {
entry:
  %A.addr = alloca ptr, align 8
  %B.addr = alloca ptr, align 8
  %failthresh.addr = alloca float, align 4
  %warnthresh.addr = alloca float, align 4
  %nthreads.addr = alloca i32, align 4
  %agg.tmp = alloca %"struct.OpenImageIO_v2_6_0::ROI", align 8
  store ptr %A, ptr %A.addr, align 8
  store ptr %B, ptr %B.addr, align 8
  store float %failthresh, ptr %failthresh.addr, align 4
  store float %warnthresh, ptr %warnthresh.addr, align 4
  store i32 %nthreads, ptr %nthreads.addr, align 4
  %0 = load ptr, ptr %A.addr, align 8
  %1 = load ptr, ptr %B.addr, align 8
  %2 = load float, ptr %failthresh.addr, align 4
  %3 = load float, ptr %warnthresh.addr, align 4
  call void @llvm.memcpy.p0.p0.i64(ptr align 4 %agg.tmp, ptr align 8 %roi, i64 32, i1 false)
  %4 = load i32, ptr %nthreads.addr, align 4
  call void @_ZN18OpenImageIO_v2_6_012ImageBufAlgo7compareERKNS_8ImageBufES3_ffffNS_3ROIEi(ptr sret(%"struct.OpenImageIO_v2_6_0::ImageBufAlgo::CompareResults") align 8 %agg.result, ptr noundef nonnull align 8 dereferenceable(16) %0, ptr noundef nonnull align 8 dereferenceable(16) %1, float noundef %2, float noundef %3, float noundef 0.000000e+00, float noundef 0.000000e+00, ptr noundef byval(%"struct.OpenImageIO_v2_6_0::ROI") align 8 %agg.tmp, i32 noundef %4)
  ret void
}

; Function Attrs: mustprogress uwtable
define noundef zeroext i1 @_ZN18OpenImageIO_v2_6_012ImageBufAlgo7compareERKNS_8ImageBufES3_ffRNS0_14CompareResultsENS_3ROIEi(ptr noundef nonnull align 8 dereferenceable(16) %A, ptr noundef nonnull align 8 dereferenceable(16) %B, float noundef %failthresh, float noundef %warnthresh, ptr noundef nonnull align 8 dereferenceable(72) %result, ptr noundef byval(%"struct.OpenImageIO_v2_6_0::ROI") align 8 %roi, i32 noundef %nthreads) #6 {
entry:
  %A.addr = alloca ptr, align 8
  %B.addr = alloca ptr, align 8
  %failthresh.addr = alloca float, align 4
  %warnthresh.addr = alloca float, align 4
  %result.addr = alloca ptr, align 8
  %nthreads.addr = alloca i32, align 4
  %ref.tmp = alloca %"struct.OpenImageIO_v2_6_0::ImageBufAlgo::CompareResults", align 8
  %agg.tmp = alloca %"struct.OpenImageIO_v2_6_0::ROI", align 8
  store ptr %A, ptr %A.addr, align 8
  store ptr %B, ptr %B.addr, align 8
  store float %failthresh, ptr %failthresh.addr, align 4
  store float %warnthresh, ptr %warnthresh.addr, align 4
  store ptr %result, ptr %result.addr, align 8
  store i32 %nthreads, ptr %nthreads.addr, align 4
  %0 = load ptr, ptr %A.addr, align 8
  %1 = load ptr, ptr %B.addr, align 8
  %2 = load float, ptr %failthresh.addr, align 4
  %3 = load float, ptr %warnthresh.addr, align 4
  call void @llvm.memcpy.p0.p0.i64(ptr align 4 %agg.tmp, ptr align 8 %roi, i64 32, i1 false)
  %4 = load i32, ptr %nthreads.addr, align 4
  call void @_ZN18OpenImageIO_v2_6_012ImageBufAlgo7compareERKNS_8ImageBufES3_ffNS_3ROIEi(ptr sret(%"struct.OpenImageIO_v2_6_0::ImageBufAlgo::CompareResults") align 8 %ref.tmp, ptr noundef nonnull align 8 dereferenceable(16) %0, ptr noundef nonnull align 8 dereferenceable(16) %1, float noundef %2, float noundef %3, ptr noundef byval(%"struct.OpenImageIO_v2_6_0::ROI") align 8 %agg.tmp, i32 noundef %4)
  %5 = load ptr, ptr %result.addr, align 8
  call void @llvm.memcpy.p0.p0.i64(ptr align 8 %5, ptr align 8 %ref.tmp, i64 72, i1 false)
  %6 = load ptr, ptr %result.addr, align 8
  %error = getelementptr inbounds %"struct.OpenImageIO_v2_6_0::ImageBufAlgo::CompareResults", ptr %6, i32 0, i32 10
  %7 = load i8, ptr %error, align 8
  %tobool = trunc i8 %7 to i1
  %conv = zext i1 %tobool to i32
  %cmp = icmp eq i32 %conv, 0
  ret i1 %cmp
}