; Function Attrs: mustprogress uwtable
define noundef zeroext i1 @_ZN18OpenImageIO_v2_6_012ImageBufAlgo7compareERKNS_8ImageBufES3_ffRNS0_14CompareResultsENS_3ROIEi(ptr noundef nonnull align 8 dereferenceable(16) %A, ptr noundef nonnull align 8 dereferenceable(16) %B, float noundef %failthresh, float noundef %warnthresh, ptr nocapture noundef nonnull align 8 dereferenceable(72) %result, ptr nocapture noundef readonly byval(%"struct.OpenImageIO_v2_6_0::ROI") align 8 %roi, i32 noundef %nthreads) local_unnamed_addr #5 {
entry:
  %ref.tmp = alloca %"struct.OpenImageIO_v2_6_0::ImageBufAlgo::CompareResults", align 8
  call void @_ZN18OpenImageIO_v2_6_012ImageBufAlgo7compareERKNS_8ImageBufES3_ffffNS_3ROIEi(ptr nonnull sret(%"struct.OpenImageIO_v2_6_0::ImageBufAlgo::CompareResults") align 8 %ref.tmp, ptr noundef nonnull align 8 dereferenceable(16) %A, ptr noundef nonnull align 8 dereferenceable(16) %B, float noundef %failthresh, float noundef %warnthresh, float noundef 0.000000e+00, float noundef 0.000000e+00, ptr noundef nonnull byval(%"struct.OpenImageIO_v2_6_0::ROI") align 8 %roi, i32 poison)
  call void @llvm.memcpy.p0.p0.i64(ptr noundef nonnull align 8 dereferenceable(72) %result, ptr noundef nonnull align 8 dereferenceable(72) %ref.tmp, i64 72, i1 false)
  %error = getelementptr inbounds i8, ptr %result, i64 64
  %0 = load i8, ptr %error, align 8
  %1 = and i8 %0, 1
  %cmp = icmp eq i8 %1, 0
  ret i1 %cmp
}